; Function Attrs: mustprogress uwtable
define noundef i32 @_ZN5folly14AsyncUDPSocket6getGSOEv(ptr noundef nonnull align 16 captures(none) dereferenceable(768) %0) unnamed_addr #1 align 2 {
  %2 = alloca i32, align 4
  %3 = alloca i32, align 4
  %4 = getelementptr inbounds nuw i8, ptr %0, i64 332
  %5 = getelementptr inbounds nuw i8, ptr %0, i64 336
  %6 = load i8, ptr %5, align 16, !tbaa !173, !range !21, !noundef !22
  %7 = trunc nuw i8 %6 to i1
  br i1 %7, label %_ZNR5folly8OptionalIiE5valueEv.exit, label %8, !prof !103

8:                                                ; preds = %1
  call void @llvm.lifetime.start.p0(i64 4, ptr nonnull %2) #36
  store i32 -1, ptr %2, align 4, !tbaa !34
  call void @llvm.lifetime.start.p0(i64 4, ptr nonnull %3) #36
  store i32 4, ptr %3, align 4, !tbaa !34
  %9 = getelementptr inbounds nuw i8, ptr %0, i64 240
  %.sroa.0.0.copyload = load i32, ptr %9, align 16, !tbaa !34
  %10 = call noundef i32 @_ZN5folly6netops10getsockoptENS_13NetworkSocketEiiPvPj(i32 %.sroa.0.0.copyload, i32 noundef 17, i32 noundef 103, ptr noundef nonnull %2, ptr noundef nonnull %3)
  %.not = icmp eq i32 %10, 0
  %11 = load i8, ptr %5, align 16, !tbaa !173, !range !21, !noundef !22
  %12 = trunc nuw i8 %11 to i1
  br i1 %.not, label %13, label %15

13:                                               ; preds = %8
  %14 = load i32, ptr %2, align 4, !tbaa !34
  br i1 %12, label %_ZN5folly8OptionalIiEaSIRiEERS1_OT_.exit, label %_ZN5folly8OptionalIiEaSIRiEERS1_OT_.exit.sink.split

15:                                               ; preds = %8
  br i1 %12, label %_ZN5folly8OptionalIiEaSIRiEERS1_OT_.exit, label %_ZN5folly8OptionalIiEaSIRiEERS1_OT_.exit.sink.split

_ZN5folly8OptionalIiEaSIRiEERS1_OT_.exit.sink.split: ; preds = %15, %13
  %storemerge.ph = phi i32 [ %14, %13 ], [ -1, %15 ]
  store i8 1, ptr %5, align 16, !tbaa !173
  br label %_ZN5folly8OptionalIiEaSIRiEERS1_OT_.exit

_ZN5folly8OptionalIiEaSIRiEERS1_OT_.exit:         ; preds = %_ZN5folly8OptionalIiEaSIRiEERS1_OT_.exit.sink.split, %15, %13
  %storemerge = phi i32 [ %14, %13 ], [ -1, %15 ], [ %storemerge.ph, %_ZN5folly8OptionalIiEaSIRiEERS1_OT_.exit.sink.split ]
  store i32 %storemerge, ptr %4, align 4, !tbaa !33
  call void @llvm.lifetime.end.p0(i64 4, ptr nonnull %3) #36
  call void @llvm.lifetime.end.p0(i64 4, ptr nonnull %2) #36
  br label %_ZNR5folly8OptionalIiE5valueEv.exit

_ZNR5folly8OptionalIiE5valueEv.exit:              ; preds = %1, %_ZN5folly8OptionalIiEaSIRiEERS1_OT_.exit
  %16 = load i32, ptr %4, align 4, !tbaa !34
  ret i32 %16
}